(lp0
(lp1
S'astar'
p2
aa(lp3
S'bwaves'
p4
aa(lp5
S'bzip2'
p6
aa(lp7
S'cactusADM'
p8
aa(lp9
S'calculix'
p10
aa(lp11
S'dealII'
p12
aa(lp13
S'gamess'
p14
aa(lp15
S'gcc'
p16
aa(lp17
S'GemsFDTD'
p18
aa(lp19
S'gobmk'
p20
aa(lp21
S'gromacs'
p22
aa(lp23
S'h264ref'
p24
aa(lp25
S'hmmer'
p26
aa(lp27
S'lbm'
p28
aa(lp29
S'leslie3d'
p30
aa(lp31
S'libquantum'
p32
aa(lp33
S'mcf'
p34
aa(lp35
S'milc'
p36
aa(lp37
S'namd'
p38
aa(lp39
S'omnetpp'
p40
aa(lp41
S'perlbench'
p42
aa(lp43
S'povray'
p44
aa(lp45
S'sjeng'
p46
aa(lp47
S'soplex'
p48
aa(lp49
S'sphinx3'
p50
aa(lp51
S'tonto'
p52
aa(lp53
S'wrf'
p54
aa(lp55
S'xalancbmk'
p56
aa(lp57
S'zeusmp'
p58
aa.