(lp0
(lp1
S'wrf'
p2
aS'gobmk'
p3
aa(lp4
S'omnetpp'
p5
aS'gromacs'
p6
aa(lp7
S'gcc'
p8
aS'lbm'
p9
aa(lp10
S'astar'
p11
ag2
aa(lp12
S'xalancbmk'
p13
ag13
aa(lp14
S'libquantum'
p15
ag11
aa(lp16
S'calculix'
p17
ag8
aa(lp18
S'cactusADM'
p19
ag9
aa(lp20
g3
aS'leslie3d'
p21
aa(lp22
S'zeusmp'
p23
ag15
aa(lp24
g8
ag19
aa(lp25
g17
ag13
aa(lp26
g9
ag2
aa(lp27
S'tonto'
p28
ag3
aa(lp29
S'bwaves'
p30
ag9
aa(lp31
S'GemsFDTD'
p32
ag15
aa(lp33
g30
ag15
aa(lp34
S'soplex'
p35
ag23
aa(lp36
S'sphinx3'
p37
ag9
aa(lp38
g30
ag13
aa(lp39
g35
ag13
aa(lp40
g8
ag17
aa(lp41
g8
ag23
aa(lp42
g21
ag21
aa(lp43
g37
ag21
aa(lp44
g35
aS'hmmer'
p45
aa(lp46
g21
ag21
aa(lp47
g13
ag37
aa(lp48
g15
ag3
aa(lp49
g19
ag21
aa(lp50
g23
ag35
aa(lp51
g13
ag8
aa(lp52
g35
ag21
aa(lp53
g28
aS'mcf'
p54
aa(lp55
g3
ag37
aa(lp56
g3
ag37
aa(lp57
g6
ag19
aa(lp58
g6
ag17
aa(lp59
g3
ag23
aa(lp60
g15
ag13
aa(lp61
g5
ag19
aa(lp62
g54
ag13
aa(lp63
g21
ag23
aa(lp64
g45
ag5
aa(lp65
g5
ag32
aa(lp66
g6
ag5
aa(lp67
g11
ag37
aa(lp68
g37
ag23
aa(lp69
g21
ag2
aa(lp70
g17
ag9
aa.