(lp0
(lp1
S'zeusmp'
p2
aS'libquantum'
p3
aS'tonto'
p4
aS'sphinx3'
p5
aa(lp6
g2
ag5
aS'omnetpp'
p7
ag3
aa(lp8
S'bwaves'
p9
aS'GemsFDTD'
p10
aS'astar'
p11
aS'leslie3d'
p12
aa(lp13
g10
aS'wrf'
p14
aS'hmmer'
p15
ag2
aa(lp16
S'lbm'
p17
ag12
ag14
aS'cactusADM'
p18
aa(lp19
S'gcc'
p20
ag4
ag18
ag14
aa(lp21
g4
ag18
aS'mcf'
p22
ag7
aa(lp23
g14
aS'xalancbmk'
p24
ag7
aS'soplex'
p25
aa(lp26
g4
ag9
ag2
ag20
aa(lp27
g17
ag11
aS'gromacs'
p28
ag5
aa(lp29
g17
ag3
ag10
ag14
aa(lp30
g4
ag17
ag4
ag11
aa(lp31
g12
ag5
ag5
aS'calculix'
p32
aa(lp33
g11
ag5
ag12
ag9
aa(lp34
g22
ag12
ag14
ag5
aa(lp35
g25
ag28
ag3
ag15
aa(lp36
g7
ag2
ag22
ag15
aa(lp37
g5
ag12
ag4
ag22
aa(lp38
g2
ag24
ag2
ag2
aa(lp39
g32
ag28
ag7
aS'milc'
p40
aa(lp41
g15
ag11
ag28
ag4
aa(lp42
g4
ag25
ag14
ag4
aa(lp43
g15
ag14
ag28
ag22
aa(lp44
g22
ag4
ag14
ag32
aa(lp45
g2
ag18
ag40
ag3
aa(lp46
g14
ag17
ag14
ag11
aa(lp47
g15
ag28
ag17
ag28
aa(lp48
g11
ag12
ag9
ag18
aa(lp49
g20
ag15
ag14
ag17
aa(lp50
g14
ag2
ag5
ag40
aa(lp51
g9
ag32
ag18
ag25
aa(lp52
g20
ag11
ag15
ag28
aa(lp53
g28
ag18
ag40
ag10
aa(lp54
g2
ag9
ag3
ag17
aa(lp55
g40
ag9
ag4
ag20
aa(lp56
g17
ag10
ag5
ag24
aa(lp57
g9
ag40
ag40
ag24
aa(lp58
g18
ag28
ag14
ag22
aa(lp59
g32
ag9
ag28
ag3
aa(lp60
g24
ag22
ag40
ag9
aa(lp61
g7
ag4
ag2
ag7
aa(lp62
g9
ag18
ag12
ag22
aa(lp63
g28
ag2
ag40
ag28
aa(lp64
g24
ag22
ag9
ag28
aa(lp65
g20
ag40
ag5
ag11
aa(lp66
g10
ag32
ag17
ag11
aa(lp67
g15
ag2
ag20
ag25
aa(lp68
g25
ag9
ag17
ag5
aa(lp69
g20
ag24
ag17
ag14
aa(lp70
g28
ag2
ag18
ag5
aa(lp71
g7
ag11
ag28
ag7
aa(lp72
g9
ag9
ag7
ag20
aa(lp73
g7
ag18
ag9
ag9
aa(lp74
g17
ag32
ag3
ag28
aa(lp75
g17
ag11
ag4
ag18
aa(lp76
g25
ag20
ag40
ag20
aa(lp77
g20
ag9
ag18
ag5
aa(lp78
g10
ag10
ag4
ag24
aa(lp79
g5
ag18
ag40
ag18
aa(lp80
g32
ag5
ag14
ag14
aa(lp81
g25
ag3
ag10
ag24
aa(lp82
g18
ag3
ag20
ag17
aa(lp83
g32
ag18
ag40
ag2
aa(lp84
g25
ag9
ag3
ag10
aa(lp85
g18
ag25
ag18
ag2
aa(lp86
g5
ag10
ag10
ag7
aa(lp87
g18
ag10
ag24
ag28
aa(lp88
g15
ag15
ag28
ag3
aa(lp89
g7
ag18
ag32
ag14
aa(lp90
g2
ag9
ag12
ag25
aa(lp91
g20
ag25
ag4
ag12
aa(lp92
g22
ag18
ag10
ag4
aa(lp93
g40
ag22
ag4
ag14
aa(lp94
g24
ag9
ag12
ag4
aa(lp95
g20
ag17
ag9
ag32
aa(lp96
g25
ag25
ag12
ag2
aa(lp97
g11
ag20
ag15
ag15
aa(lp98
g2
ag2
ag11
ag12
aa(lp99
g9
ag5
ag10
ag9
aa(lp100
g24
ag3
ag10
ag18
aa(lp101
g3
ag14
ag2
ag24
aa(lp102
g10
ag18
ag18
ag4
aa(lp103
g15
ag11
ag18
ag22
aa(lp104
g22
ag12
ag5
ag7
aa(lp105
g5
ag3
ag9
ag5
aa(lp106
g9
ag22
ag12
ag12
aa(lp107
g10
ag5
ag24
ag4
aa(lp108
g12
ag15
ag10
ag24
aa(lp109
g15
ag7
ag25
ag3
aa(lp110
g32
ag20
ag40
ag17
aa(lp111
g10
ag22
ag18
ag15
aa(lp112
g2
ag28
ag40
ag10
aa(lp113
g5
ag24
ag24
ag7
aa(lp114
g22
ag4
ag15
ag22
aa(lp115
g14
ag14
ag22
ag25
aa(lp116
g15
ag18
ag12
ag40
aa(lp117
g4
ag24
ag2
ag24
aa(lp118
g3
ag20
ag40
ag10
aa(lp119
g2
ag22
ag18
ag7
aa(lp120
g10
ag28
ag32
ag24
aa(lp121
g5
ag17
ag10
ag7
aa(lp122
g11
ag20
ag10
ag12
aa(lp123
g4
ag40
ag12
ag15
aa(lp124
g22
ag24
ag4
ag11
aa(lp125
g3
ag14
ag9
ag5
aa(lp126
g11
ag9
ag11
ag14
aa(lp127
g25
ag7
ag17
ag18
aa(lp128
g5
ag24
ag20
ag4
aa(lp129
g2
ag17
ag7
ag22
aa(lp130
g17
ag24
ag3
ag9
aa(lp131
g9
ag20
ag20
ag2
aa(lp132
g40
ag3
ag11
ag5
aa(lp133
g5
ag15
ag2
ag25
aa(lp134
g14
ag17
ag15
ag32
aa(lp135
g2
ag18
ag32
ag2
aa(lp136
g11
ag7
ag9
ag25
aa(lp137
g20
ag40
ag4
ag40
aa(lp138
g17
ag10
ag4
ag5
aa(lp139
g14
ag17
ag20
ag11
aa(lp140
g25
ag11
ag32
ag12
aa(lp141
g25
ag12
ag28
ag17
aa(lp142
g14
ag5
ag7
ag11
aa(lp143
g4
ag12
ag32
ag4
aa(lp144
g20
ag22
ag2
ag22
aa(lp145
g11
ag14
ag3
ag15
aa(lp146
g4
ag28
ag3
ag17
aa(lp147
g24
ag7
ag25
ag40
aa(lp148
g11
ag20
ag3
ag4
aa(lp149
g18
ag2
ag7
ag24
aa(lp150
g20
ag5
ag3
ag22
aa(lp151
g9
ag7
ag40
ag9
aa(lp152
g28
ag5
ag7
ag22
aa(lp153
g10
ag7
ag5
ag2
aa(lp154
g12
ag3
ag24
ag9
aa(lp155
g7
ag32
ag18
ag32
aa(lp156
g2
ag10
ag3
ag9
aa(lp157
g28
ag22
ag25
ag32
aa(lp158
g12
ag7
ag18
ag2
aa(lp159
g11
ag12
ag14
ag18
aa(lp160
g24
ag17
ag7
ag25
aa(lp161
g32
ag25
ag32
ag20
aa(lp162
g11
ag12
ag10
ag4
aa(lp163
g15
ag2
ag3
ag20
aa(lp164
g20
ag12
ag14
ag25
aa(lp165
g14
ag40
ag12
ag17
aa(lp166
g17
ag7
ag3
ag22
aa(lp167
g2
ag20
ag10
ag18
aa(lp168
g32
ag32
ag14
ag24
aa(lp169
g40
ag18
ag3
ag20
aa(lp170
g15
ag9
ag25
ag17
aa.