(lp0
S'zeusmp'
p1
aS'libquantum'
p2
aS'tonto'
p3
aS'sphinx3'
p4
a.(lp0
S'bwaves'
p1
aS'GemsFDTD'
p2
aS'astar'
p3
aS'leslie3d'
p4
a.(lp0
S'lbm'
p1
aS'leslie3d'
p2
aS'wrf'
p3
aS'cactusADM'
p4
a.(lp0
S'tonto'
p1
aS'cactusADM'
p2
aS'mcf'
p3
aS'omnetpp'
p4
a.(lp0
S'tonto'
p1
aS'bwaves'
p2
aS'zeusmp'
p3
aS'gcc'
p4
a.(lp0
S'lbm'
p1
aS'libquantum'
p2
aS'GemsFDTD'
p3
aS'wrf'
p4
a.(lp0
S'leslie3d'
p1
aS'sphinx3'
p2
ag2
aS'calculix'
p3
a.(lp0
S'mcf'
p1
aS'leslie3d'
p2
aS'wrf'
p3
aS'sphinx3'
p4
a.(lp0
S'omnetpp'
p1
aS'zeusmp'
p2
aS'mcf'
p3
aS'hmmer'
p4
a.(lp0
S'zeusmp'
p1
aS'xalancbmk'
p2
ag1
ag1
a.(lp0
S'hmmer'
p1
aS'astar'
p2
aS'gromacs'
p3
aS'tonto'
p4
a.(lp0
S'hmmer'
p1
aS'wrf'
p2
aS'gromacs'
p3
aS'mcf'
p4
a.(lp0
S'zeusmp'
p1
aS'cactusADM'
p2
aS'milc'
p3
aS'libquantum'
p4
a.(lp0
S'hmmer'
p1
aS'gromacs'
p2
aS'lbm'
p3
ag2
a.(lp0
S'gcc'
p1
aS'hmmer'
p2
aS'wrf'
p3
aS'lbm'
p4
a.(lp0
S'bwaves'
p1
aS'calculix'
p2
aS'cactusADM'
p3
aS'soplex'
p4
a.(lp0
S'gromacs'
p1
aS'cactusADM'
p2
aS'milc'
p3
aS'GemsFDTD'
p4
a.(lp0
S'milc'
p1
aS'bwaves'
p2
aS'tonto'
p3
aS'gcc'
p4
a.(lp0
S'bwaves'
p1
aS'milc'
p2
ag2
aS'xalancbmk'
p3
a.(lp0
S'calculix'
p1
aS'bwaves'
p2
aS'gromacs'
p3
aS'libquantum'
p4
a.(lp0
S'omnetpp'
p1
aS'tonto'
p2
aS'zeusmp'
p3
ag1
a.(lp0
S'gromacs'
p1
aS'zeusmp'
p2
aS'milc'
p3
ag1
a.(lp0
S'gcc'
p1
aS'milc'
p2
aS'sphinx3'
p3
aS'astar'
p4
a.(lp0
S'hmmer'
p1
aS'zeusmp'
p2
aS'gcc'
p3
aS'soplex'
p4
a.(lp0
S'gcc'
p1
aS'xalancbmk'
p2
aS'lbm'
p3
aS'wrf'
p4
a.(lp0
S'omnetpp'
p1
aS'astar'
p2
aS'gromacs'
p3
ag1
a.(lp0
S'omnetpp'
p1
aS'cactusADM'
p2
aS'bwaves'
p3
ag3
a.(lp0
S'lbm'
p1
aS'astar'
p2
aS'tonto'
p3
aS'cactusADM'
p4
a.(lp0
S'gcc'
p1
aS'bwaves'
p2
aS'cactusADM'
p3
aS'sphinx3'
p4
a.(lp0
S'sphinx3'
p1
aS'cactusADM'
p2
aS'milc'
p3
ag2
a.(lp0
S'soplex'
p1
aS'libquantum'
p2
aS'GemsFDTD'
p3
aS'xalancbmk'
p4
a.(lp0
S'calculix'
p1
aS'cactusADM'
p2
aS'milc'
p3
aS'zeusmp'
p4
a.(lp0
S'cactusADM'
p1
aS'soplex'
p2
ag1
aS'zeusmp'
p3
a.(lp0
S'cactusADM'
p1
aS'GemsFDTD'
p2
aS'xalancbmk'
p3
aS'gromacs'
p4
a.(lp0
S'omnetpp'
p1
aS'cactusADM'
p2
aS'calculix'
p3
aS'wrf'
p4
a.(lp0
S'gcc'
p1
aS'soplex'
p2
aS'tonto'
p3
aS'leslie3d'
p4
a.(lp0
S'milc'
p1
aS'mcf'
p2
aS'tonto'
p3
aS'wrf'
p4
a.(lp0
S'gcc'
p1
aS'lbm'
p2
aS'bwaves'
p3
aS'calculix'
p4
a.(lp0
S'astar'
p1
aS'gcc'
p2
aS'hmmer'
p3
ag3
a.(lp0
S'bwaves'
p1
aS'sphinx3'
p2
aS'GemsFDTD'
p3
ag1
a.(lp0
S'libquantum'
p1
aS'wrf'
p2
aS'zeusmp'
p3
aS'xalancbmk'
p4
a.(lp0
S'hmmer'
p1
aS'astar'
p2
aS'cactusADM'
p3
aS'mcf'
p4
a.(lp0
S'sphinx3'
p1
aS'libquantum'
p2
aS'bwaves'
p3
ag1
a.(lp0
S'GemsFDTD'
p1
aS'sphinx3'
p2
aS'xalancbmk'
p3
aS'tonto'
p4
a.(lp0
S'hmmer'
p1
aS'omnetpp'
p2
aS'soplex'
p3
aS'libquantum'
p4
a.(lp0
S'GemsFDTD'
p1
aS'mcf'
p2
aS'cactusADM'
p3
aS'hmmer'
p4
a.(lp0
S'sphinx3'
p1
aS'xalancbmk'
p2
ag2
aS'omnetpp'
p3
a.(lp0
S'wrf'
p1
ag1
aS'mcf'
p2
aS'soplex'
p3
a.(lp0
S'tonto'
p1
aS'xalancbmk'
p2
aS'zeusmp'
p3
ag2
a.(lp0
S'zeusmp'
p1
aS'mcf'
p2
aS'cactusADM'
p3
aS'omnetpp'
p4
a.(lp0
S'sphinx3'
p1
aS'lbm'
p2
aS'GemsFDTD'
p3
aS'omnetpp'
p4
a.(lp0
S'tonto'
p1
aS'milc'
p2
aS'leslie3d'
p3
aS'hmmer'
p4
a.(lp0
S'libquantum'
p1
aS'wrf'
p2
aS'bwaves'
p3
aS'sphinx3'
p4
a.(lp0
S'soplex'
p1
aS'omnetpp'
p2
aS'lbm'
p3
aS'cactusADM'
p4
a.(lp0
S'zeusmp'
p1
aS'lbm'
p2
aS'omnetpp'
p3
aS'mcf'
p4
a.(lp0
S'bwaves'
p1
aS'gcc'
p2
ag2
aS'zeusmp'
p3
a.(lp0
S'sphinx3'
p1
aS'hmmer'
p2
aS'zeusmp'
p3
aS'soplex'
p4
a.(lp0
S'zeusmp'
p1
aS'cactusADM'
p2
aS'calculix'
p3
ag1
a.(lp0
S'gcc'
p1
aS'milc'
p2
aS'tonto'
p3
ag2
a.(lp0
S'wrf'
p1
aS'lbm'
p2
aS'gcc'
p3
aS'astar'
p4
a.(lp0
S'soplex'
p1
aS'leslie3d'
p2
aS'gromacs'
p3
aS'lbm'
p4
a.(lp0
S'tonto'
p1
aS'leslie3d'
p2
aS'calculix'
p3
ag1
a.(lp0
S'astar'
p1
aS'wrf'
p2
aS'libquantum'
p3
aS'hmmer'
p4
a.(lp0
S'xalancbmk'
p1
aS'omnetpp'
p2
aS'soplex'
p3
aS'milc'
p4
a.(lp0
S'cactusADM'
p1
aS'zeusmp'
p2
aS'omnetpp'
p3
aS'xalancbmk'
p4
a.(lp0
S'bwaves'
p1
aS'omnetpp'
p2
aS'milc'
p3
ag1
a.(lp0
S'GemsFDTD'
p1
aS'omnetpp'
p2
aS'sphinx3'
p3
aS'zeusmp'
p4
a.(lp0
S'omnetpp'
p1
aS'calculix'
p2
aS'cactusADM'
p3
ag2
a.(lp0
S'gromacs'
p1
aS'mcf'
p2
aS'soplex'
p3
aS'calculix'
p4
a.(lp0
S'astar'
p1
aS'leslie3d'
p2
aS'wrf'
p3
aS'cactusADM'
p4
a.(lp0
S'calculix'
p1
aS'soplex'
p2
ag1
aS'gcc'
p3
a.(lp0
S'hmmer'
p1
aS'zeusmp'
p2
aS'libquantum'
p3
aS'gcc'
p4
a.(lp0
S'wrf'
p1
aS'milc'
p2
aS'leslie3d'
p3
aS'lbm'
p4
a.(lp0
S'zeusmp'
p1
aS'gcc'
p2
aS'GemsFDTD'
p3
aS'cactusADM'
p4
a.(lp0
S'milc'
p1
aS'cactusADM'
p2
aS'libquantum'
p3
aS'gcc'
p4
a.